; Function Attrs: nounwind uwtable
define i32 @EVP_PKEY_CTX_get_ecdh_cofactor_mode(ptr noundef %0) local_unnamed_addr #0 {
  %2 = alloca i32, align 4
  %3 = alloca [2 x %struct.ossl_param_st], align 16
  %4 = alloca %struct.ossl_param_st, align 8
  call void @llvm.lifetime.start.p0(i64 4, ptr nonnull %2) #4
  call void @llvm.lifetime.start.p0(i64 80, ptr nonnull %3) #4
  %5 = icmp eq ptr %0, null
  br i1 %5, label %9, label %6

6:                                                ; preds = %1
  %7 = load i32, ptr %0, align 8, !tbaa !7
  %8 = and i32 %7, 2048
  %.not.i = icmp eq i32 %8, 0
  br i1 %.not.i, label %9, label %10

9:                                                ; preds = %6, %1
  tail call void @ERR_new() #4
  tail call void @ERR_set_debug(ptr noundef nonnull @.str.1, i32 noundef 27, ptr noundef nonnull @__func__.evp_pkey_ctx_getset_ecdh_param_checks) #4
  tail call void (i32, i32, ptr, ...) @ERR_set_error(i32 noundef 6, i32 noundef 147, ptr noundef null) #4
  br label %evp_pkey_ctx_getset_ecdh_param_checks.exit.thread

10:                                               ; preds = %6
  %11 = getelementptr inbounds nuw i8, ptr %0, i64 32
  %12 = load ptr, ptr %11, align 8, !tbaa !20
  %13 = icmp eq ptr %12, null
  br i1 %13, label %14, label %evp_pkey_ctx_getset_ecdh_param_checks.exit

14:                                               ; preds = %10
  %15 = getelementptr inbounds nuw i8, ptr %0, i64 120
  %16 = load ptr, ptr %15, align 8, !tbaa !21
  %.not7.i = icmp eq ptr %16, null
  br i1 %.not7.i, label %evp_pkey_ctx_getset_ecdh_param_checks.exit, label %17

17:                                               ; preds = %14
  %18 = load i32, ptr %16, align 8, !tbaa !22
  %.not8.i = icmp eq i32 %18, 408
  br i1 %.not8.i, label %evp_pkey_ctx_getset_ecdh_param_checks.exit, label %evp_pkey_ctx_getset_ecdh_param_checks.exit.thread

evp_pkey_ctx_getset_ecdh_param_checks.exit:       ; preds = %17, %14, %10
  %19 = getelementptr inbounds nuw i8, ptr %3, i64 40
  call void @OSSL_PARAM_construct_int(ptr dead_on_unwind nonnull writable sret(%struct.ossl_param_st) align 8 %3, ptr noundef nonnull @.str, ptr noundef nonnull %2) #4
  call void @llvm.lifetime.start.p0(i64 40, ptr nonnull %4) #4
  call void @OSSL_PARAM_construct_end(ptr dead_on_unwind nonnull writable sret(%struct.ossl_param_st) align 8 %4) #4
  call void @llvm.memcpy.p0.p0.i64(ptr noundef nonnull align 8 dereferenceable(40) %19, ptr noundef nonnull align 8 dereferenceable(40) %4, i64 40, i1 false), !tbaa.struct !24
  call void @llvm.lifetime.end.p0(i64 40, ptr nonnull %4) #4
  %20 = call i32 @evp_pkey_ctx_get_params_strict(ptr noundef nonnull %0, ptr noundef nonnull %3) #4
  switch i32 %20, label %evp_pkey_ctx_getset_ecdh_param_checks.exit.thread [
    i32 -2, label %21
    i32 1, label %22
  ]

21:                                               ; preds = %evp_pkey_ctx_getset_ecdh_param_checks.exit
  call void @ERR_new() #4
  call void @ERR_set_debug(ptr noundef nonnull @.str.1, i32 noundef 87, ptr noundef nonnull @__func__.EVP_PKEY_CTX_get_ecdh_cofactor_mode) #4
  call void (i32, i32, ptr, ...) @ERR_set_error(i32 noundef 6, i32 noundef 147, ptr noundef null) #4
  br label %evp_pkey_ctx_getset_ecdh_param_checks.exit.thread

22:                                               ; preds = %evp_pkey_ctx_getset_ecdh_param_checks.exit
  %23 = load i32, ptr %2, align 4, !tbaa !3
  %or.cond = icmp ugt i32 %23, 1
  %spec.store.select = select i1 %or.cond, i32 -1, i32 %23
  br label %evp_pkey_ctx_getset_ecdh_param_checks.exit.thread

evp_pkey_ctx_getset_ecdh_param_checks.exit.thread: ; preds = %17, %9, %21, %22, %evp_pkey_ctx_getset_ecdh_param_checks.exit
  %.09 = phi i32 [ %spec.store.select, %22 ], [ -2, %21 ], [ -1, %evp_pkey_ctx_getset_ecdh_param_checks.exit ], [ -1, %17 ], [ -2, %9 ]
  call void @llvm.lifetime.end.p0(i64 80, ptr nonnull %3) #4
  call void @llvm.lifetime.end.p0(i64 4, ptr nonnull %2) #4
  ret i32 %.09
}